#include <math.h>
#include <stdio.h>
#include <stdlib.h>
#include <string.h>

char max(char ch[],int len)
{
	int i;
	char t;
	for(i=0;i<len-1;i++)
		if(ch[i]>ch[i+1])
		{
			t=ch[i];
			ch[i]=ch[i+1];
			ch[i+1]=t;
		}
	return ch[len-1];
}
int main()
{
	char str[20],sub[4],x[20],m;
	int len,i;
    while(scanf("%s %s",str,sub)!=EOF)
	{
		len=strlen(str);
		strcpy(x,str);
		m=max(x,len);
		i=0;
		do 
		{
			printf("%c",str[i]);
			i++;
		}
		while(str[i]!=m);
		printf("%c",str[i]);
		printf("%s",sub);
		for(++i;i<len;i++)printf("%c",str[i]);
printf("\n");
	}
	return 0;
}